; Function Attrs: nounwind uwtable
define dso_local zeroext i1 @HotStandbyActive() local_unnamed_addr #2 {
  %1 = load i8, ptr @LocalHotStandbyActive, align 1, !range !4, !noundef !5
  %2 = trunc nuw i8 %1 to i1
  br i1 %2, label %18, label %3

3:                                                ; preds = %0
  %4 = load ptr, ptr @XLogRecoveryCtl, align 8
  %5 = getelementptr inbounds nuw i8, ptr %4, i64 96
  %6 = tail call i8 asm sideeffect "\09lock\09\09\09\0A\09xchgb\09$0,$1\09\0A", "=q,=*m,0,*m,~{memory},~{cc},~{dirflag},~{fpsr},~{flags}"(ptr nonnull elementtype(i8) %5, i8 1, ptr nonnull elementtype(i8) %5) #23, !srcloc !10
  %.not = icmp eq i8 %6, 0
  br i1 %.not, label %11, label %7

7:                                                ; preds = %3
  %8 = load ptr, ptr @XLogRecoveryCtl, align 8
  %9 = getelementptr inbounds nuw i8, ptr %8, i64 96
  %10 = tail call i32 @s_lock(ptr noundef nonnull %9, ptr noundef nonnull @.str.6, i32 noundef 4526, ptr noundef nonnull @__func__.HotStandbyActive) #23
  br label %11

11:                                               ; preds = %3, %7
  %12 = load ptr, ptr @XLogRecoveryCtl, align 8
  %13 = load i8, ptr %12, align 8, !range !4, !noundef !5
  store i8 %13, ptr @LocalHotStandbyActive, align 1
  tail call void asm sideeffect "", "~{memory},~{dirflag},~{fpsr},~{flags}"() #23, !srcloc !36
  %14 = load ptr, ptr @XLogRecoveryCtl, align 8
  %15 = getelementptr inbounds nuw i8, ptr %14, i64 96
  store i8 0, ptr %15, align 8
  %16 = load i8, ptr @LocalHotStandbyActive, align 1, !range !4, !noundef !5
  %17 = trunc nuw i8 %16 to i1
  br label %18

18:                                               ; preds = %0, %11
  %.0 = phi i1 [ %17, %11 ], [ true, %0 ]
  ret i1 %.0
}